target datalayout = "e-m:e-p270:32:32-p271:32:32-p272:64:64-i64:64-i128:128-f80:128-n8:16:32:64-S128"
target triple = "x86_64-pc-linux-gnu"

%"class.llvm::GISelInstProfileBuilder" = type { ptr, ptr }
%"class.llvm::LLT" = type { i64 }

; Function Attrs: mustprogress nounwind uwtable
define linkonce_odr hidden void @_ZN4llvm16FoldingSetNodeID10AddIntegerEm(ptr noundef nonnull align 8 dereferenceable(144) %0, i64 noundef %1) #0 comdat align 2 {
  %3 = alloca ptr, align 8
  %4 = alloca i64, align 8
  store ptr %0, ptr %3, align 8
  store i64 %1, ptr %4, align 8
  %5 = load ptr, ptr %3, align 8
  %6 = load i64, ptr %4, align 8
  call void @_ZN4llvm16FoldingSetNodeID10AddIntegerEy(ptr noundef nonnull align 8 dereferenceable(144) %5, i64 noundef %6)
  ret void
}

; Function Attrs: mustprogress nounwind uwtable
define linkonce_odr hidden noundef i64 @_ZNK4llvm3LLT19getUniqueRAWLLTDataEv(ptr noundef nonnull align 8 dereferenceable(8) %0) #0 comdat align 2 {
  %2 = alloca ptr, align 8
  store ptr %0, ptr %2, align 8
  %3 = load ptr, ptr %2, align 8
  %4 = load i64, ptr %3, align 8
  %5 = lshr i64 %4, 3
  %6 = shl i64 %5, 3
  %7 = load i64, ptr %3, align 8
  %8 = and i64 %7, 1
  %9 = shl i64 %8, 2
  %10 = or i64 %6, %9
  %11 = load i64, ptr %3, align 8
  %12 = lshr i64 %11, 1
  %13 = and i64 %12, 1
  %14 = shl i64 %13, 1
  %15 = or i64 %10, %14
  %16 = load i64, ptr %3, align 8
  %17 = lshr i64 %16, 2
  %18 = and i64 %17, 1
  %19 = or i64 %15, %18
  ret i64 %19
}

; Function Attrs: mustprogress nounwind uwtable
define dso_local noundef nonnull align 8 dereferenceable(16) ptr @_ZNK4llvm23GISelInstProfileBuilder16addNodeIDRegTypeENS_3LLTE(ptr noundef nonnull align 8 dereferenceable(16) %0, i64 %1) #0 align 2 {
  %3 = alloca %"class.llvm::LLT", align 8
  %4 = alloca ptr, align 8
  %5 = alloca i64, align 8
  %6 = getelementptr inbounds nuw %"class.llvm::LLT", ptr %3, i32 0, i32 0
  store i64 %1, ptr %6, align 8
  store ptr %0, ptr %4, align 8
  %7 = load ptr, ptr %4, align 8
  %8 = call noundef i64 @_ZNK4llvm3LLT19getUniqueRAWLLTDataEv(ptr noundef nonnull align 8 dereferenceable(8) %3)
  store i64 %8, ptr %5, align 8
  %9 = getelementptr inbounds nuw %"class.llvm::GISelInstProfileBuilder", ptr %7, i32 0, i32 0
  %10 = load ptr, ptr %9, align 8
  %11 = load i64, ptr %5, align 8
  call void @_ZN4llvm16FoldingSetNodeID10AddIntegerEm(ptr noundef nonnull align 8 dereferenceable(144) %10, i64 noundef %11)
  ret ptr %7
}