; Function Attrs: mustprogress nounwind uwtable
define dso_local noundef nonnull align 8 dereferenceable(16) ptr @_ZNK4llvm23GISelInstProfileBuilder16addNodeIDRegTypeENS_3LLTE(ptr noundef nonnull readonly returned align 8 dereferenceable(16) %0, i64 %1) local_unnamed_addr #0 align 2 {
  %3 = shl i64 %1, 2
  %4 = and i64 %3, 4
  %5 = and i64 %1, -6
  %6 = or disjoint i64 %4, %5
  %7 = lshr i64 %1, 2
  %8 = and i64 %7, 1
  %9 = or disjoint i64 %6, %8
  %10 = load ptr, ptr %0, align 8
  tail call void @_ZN4llvm16FoldingSetNodeID10AddIntegerEy(ptr noundef nonnull align 8 dereferenceable(144) %10, i64 noundef %9)
  ret ptr %0
}